; Function Attrs: mustprogress uwtable
define noundef i32 @_Z12read_first_xPK16gmx_output_env_tPP11t_trxstatusRKNSt10filesystem7__cxx114pathEPfPPA3_fSC_(ptr noundef %0, ptr nocapture noundef %1, ptr noundef nonnull align 8 dereferenceable(40) %2, ptr nocapture noundef writeonly %3, ptr nocapture noundef writeonly %4, ptr nocapture noundef writeonly %5) local_unnamed_addr #2 {
  %7 = alloca %struct.t_trxframe, align 8
  %8 = call noundef zeroext i1 @_Z16read_first_framePK16gmx_output_env_tPP11t_trxstatusRKNSt10filesystem7__cxx114pathEP10t_trxframei(ptr noundef %0, ptr noundef %1, ptr noundef nonnull align 8 dereferenceable(40) %2, ptr noundef nonnull %7, i32 noundef 2)
  %9 = load ptr, ptr %1, align 8
  %10 = getelementptr inbounds i8, ptr %9, i64 16
  %11 = call noundef ptr @_Z11save_callocPKcS0_imm(ptr noundef nonnull @.str.52, ptr noundef nonnull @.str.2, i32 noundef 1116, i64 noundef 1, i64 noundef 176)
  store ptr %11, ptr %10, align 8
  %12 = load ptr, ptr %1, align 8
  %13 = getelementptr inbounds i8, ptr %12, i64 16
  %14 = load ptr, ptr %13, align 8
  call void @llvm.memcpy.p0.p0.i64(ptr noundef nonnull align 8 dereferenceable(176) %14, ptr noundef nonnull align 8 dereferenceable(176) %7, i64 176, i1 false)
  %15 = load ptr, ptr %1, align 8
  %16 = getelementptr inbounds i8, ptr %15, i64 16
  %17 = load ptr, ptr %16, align 8
  %18 = getelementptr inbounds i8, ptr %17, i64 28
  %19 = load float, ptr %18, align 4
  store float %19, ptr %3, align 4
  %20 = load ptr, ptr %1, align 8
  %21 = getelementptr inbounds i8, ptr %20, i64 16
  %22 = load ptr, ptr %21, align 8
  %23 = getelementptr inbounds i8, ptr %22, i64 72
  %24 = load ptr, ptr %23, align 8
  store ptr %24, ptr %4, align 8
  %25 = load ptr, ptr %1, align 8
  %26 = getelementptr inbounds i8, ptr %25, i64 16
  %27 = load ptr, ptr %26, align 8
  %28 = getelementptr inbounds i8, ptr %27, i64 116
  %29 = load float, ptr %28, align 4
  store float %29, ptr %5, align 4
  %30 = getelementptr inbounds i8, ptr %27, i64 120
  %31 = load float, ptr %30, align 4
  %32 = getelementptr inbounds i8, ptr %5, i64 4
  store float %31, ptr %32, align 4
  %33 = getelementptr inbounds i8, ptr %27, i64 124
  %34 = load float, ptr %33, align 4
  %35 = getelementptr inbounds i8, ptr %5, i64 8
  store float %34, ptr %35, align 4
  %36 = getelementptr inbounds i8, ptr %27, i64 128
  %37 = getelementptr inbounds i8, ptr %5, i64 12
  %38 = load float, ptr %36, align 4
  store float %38, ptr %37, align 4
  %39 = getelementptr inbounds i8, ptr %27, i64 132
  %40 = load float, ptr %39, align 4
  %41 = getelementptr inbounds i8, ptr %5, i64 16
  store float %40, ptr %41, align 4
  %42 = getelementptr inbounds i8, ptr %27, i64 136
  %43 = load float, ptr %42, align 4
  %44 = getelementptr inbounds i8, ptr %5, i64 20
  store float %43, ptr %44, align 4
  %45 = getelementptr inbounds i8, ptr %27, i64 140
  %46 = getelementptr inbounds i8, ptr %5, i64 24
  %47 = load float, ptr %45, align 4
  store float %47, ptr %46, align 4
  %48 = getelementptr inbounds i8, ptr %27, i64 144
  %49 = load float, ptr %48, align 4
  %50 = getelementptr inbounds i8, ptr %5, i64 28
  store float %49, ptr %50, align 4
  %51 = getelementptr inbounds i8, ptr %27, i64 148
  %52 = load float, ptr %51, align 4
  %53 = getelementptr inbounds i8, ptr %5, i64 32
  store float %52, ptr %53, align 4
  %54 = load ptr, ptr %1, align 8
  %55 = getelementptr inbounds i8, ptr %54, i64 16
  %56 = load ptr, ptr %55, align 8
  %57 = getelementptr inbounds i8, ptr %56, i64 8
  %58 = load i32, ptr %57, align 8
  ret i32 %58
}